target datalayout = "e-m:e-p270:32:32-p271:32:32-p272:64:64-i64:64-i128:128-f80:128-n8:16:32:64-S128"
target triple = "x86_64-pc-linux-gnu"

%struct.AggState = type { %struct.ScanState, ptr, i32, i32, i32, i32, ptr, i32, i32, ptr, ptr, ptr, ptr, ptr, ptr, ptr, ptr, i8, i8, i32, i32, ptr, ptr, ptr, i32, i8, i32, ptr, ptr, ptr, ptr, ptr, ptr, i8, i32, ptr, ptr, ptr, ptr, ptr, ptr, i8, i8, i64, i64, i32, double, i64, i64, i64, i32, ptr, ptr, ptr, ptr }
%struct.ScanState = type { %struct.PlanState, ptr, ptr, ptr }
%struct.PlanState = type { i32, ptr, ptr, ptr, ptr, ptr, ptr, ptr, ptr, ptr, ptr, ptr, ptr, ptr, ptr, ptr, ptr, ptr, i8, ptr, ptr, ptr, ptr, ptr, i8, i8, i8, i8, i8, i8, i8, i8 }
%struct.ExprContext = type { i32, ptr, ptr, ptr, ptr, ptr, ptr, ptr, ptr, ptr, i64, i8, i64, i8, ptr, ptr, ptr, ptr }
%struct.FmgrInfo = type { ptr, i32, i16, i8, i8, i8, ptr, ptr, ptr }
%struct.AggStatePerTransData = type { ptr, i8, i8, i32, i32, i32, i32, i32, i32, %struct.FmgrInfo, %struct.FmgrInfo, %struct.FmgrInfo, i32, i32, i32, ptr, ptr, ptr, ptr, %struct.FmgrInfo, ptr, i64, i8, i16, i16, i8, i8, ptr, ptr, ptr, i64, i8, i8, ptr, ptr, ptr, ptr }
%struct.FunctionCallInfoBaseData = type { ptr, ptr, ptr, i32, i8, i16, [0 x %struct.NullableDatum] }
%struct.NullableDatum = type { i64, i8 }
%struct.AggStatePerGroupData = type { i64, i8, i8 }

@CurrentMemoryContext = external global ptr, align 8

; Function Attrs: inlinehint nounwind uwtable
define internal ptr @DatumGetPointer(i64 noundef %0) #3 {
  %2 = alloca i64, align 8
  store i64 %0, ptr %2, align 8
  %3 = load i64, ptr %2, align 8
  %4 = inttoptr i64 %3 to ptr
  ret ptr %4
}

; Function Attrs: inlinehint nounwind uwtable
define internal ptr @MemoryContextSwitchTo(ptr noundef %0) #3 {
  %2 = alloca ptr, align 8
  %3 = alloca ptr, align 8
  store ptr %0, ptr %2, align 8
  call void @llvm.lifetime.start.p0(i64 8, ptr %3) #9
  %4 = load ptr, ptr @CurrentMemoryContext, align 8
  store ptr %4, ptr %3, align 8
  %5 = load ptr, ptr %2, align 8
  store ptr %5, ptr @CurrentMemoryContext, align 8
  %6 = load ptr, ptr %3, align 8
  call void @llvm.lifetime.end.p0(i64 8, ptr %3) #9
  ret ptr %6
}

; Function Attrs: nounwind uwtable
define internal void @advance_transition_function(ptr noundef %0, ptr noundef %1, ptr noundef %2) #0 {
  %4 = alloca ptr, align 8
  %5 = alloca ptr, align 8
  %6 = alloca ptr, align 8
  %7 = alloca ptr, align 8
  %8 = alloca ptr, align 8
  %9 = alloca i64, align 8
  %10 = alloca i32, align 4
  %11 = alloca i32, align 4
  %12 = alloca i32, align 4
  store ptr %0, ptr %4, align 8
  store ptr %1, ptr %5, align 8
  store ptr %2, ptr %6, align 8
  call void @llvm.lifetime.start.p0(i64 8, ptr %7) #9
  %13 = load ptr, ptr %5, align 8
  %14 = getelementptr inbounds nuw %struct.AggStatePerTransData, ptr %13, i32 0, i32 34
  %15 = load ptr, ptr %14, align 8
  store ptr %15, ptr %7, align 8
  call void @llvm.lifetime.start.p0(i64 8, ptr %8) #9
  call void @llvm.lifetime.start.p0(i64 8, ptr %9) #9
  %16 = load ptr, ptr %5, align 8
  %17 = getelementptr inbounds nuw %struct.AggStatePerTransData, ptr %16, i32 0, i32 9
  %18 = getelementptr inbounds nuw %struct.FmgrInfo, ptr %17, i32 0, i32 3
  %19 = load i8, ptr %18, align 2, !range !4, !noundef !5
  %20 = trunc i8 %19 to i1
  br i1 %20, label %21, label %87

21:                                               ; preds = %3
  call void @llvm.lifetime.start.p0(i64 4, ptr %10) #9
  %22 = load ptr, ptr %5, align 8
  %23 = getelementptr inbounds nuw %struct.AggStatePerTransData, ptr %22, i32 0, i32 4
  %24 = load i32, ptr %23, align 8
  store i32 %24, ptr %10, align 4
  call void @llvm.lifetime.start.p0(i64 4, ptr %11) #9
  store i32 1, ptr %11, align 4
  br label %25

25:                                               ; preds = %40, %21
  %26 = load i32, ptr %11, align 4
  %27 = load i32, ptr %10, align 4
  %28 = icmp sle i32 %26, %27
  br i1 %28, label %29, label %43

29:                                               ; preds = %25
  %30 = load ptr, ptr %7, align 8
  %31 = getelementptr inbounds nuw %struct.FunctionCallInfoBaseData, ptr %30, i32 0, i32 6
  %32 = load i32, ptr %11, align 4
  %33 = sext i32 %32 to i64
  %34 = getelementptr inbounds [0 x %struct.NullableDatum], ptr %31, i64 0, i64 %33
  %35 = getelementptr inbounds nuw %struct.NullableDatum, ptr %34, i32 0, i32 1
  %36 = load i8, ptr %35, align 8, !range !4, !noundef !5
  %37 = trunc i8 %36 to i1
  br i1 %37, label %38, label %39

38:                                               ; preds = %29
  store i32 1, ptr %12, align 4
  br label %84

39:                                               ; preds = %29
  br label %40

40:                                               ; preds = %39
  %41 = load i32, ptr %11, align 4
  %42 = add i32 %41, 1
  store i32 %42, ptr %11, align 4
  br label %25, !llvm.loop !65

43:                                               ; preds = %25
  %44 = load ptr, ptr %6, align 8
  %45 = getelementptr inbounds nuw %struct.AggStatePerGroupData, ptr %44, i32 0, i32 2
  %46 = load i8, ptr %45, align 1, !range !4, !noundef !5
  %47 = trunc i8 %46 to i1
  br i1 %47, label %48, label %77

48:                                               ; preds = %43
  %49 = load ptr, ptr %4, align 8
  %50 = getelementptr inbounds nuw %struct.AggState, ptr %49, i32 0, i32 14
  %51 = load ptr, ptr %50, align 8
  %52 = getelementptr inbounds nuw %struct.ExprContext, ptr %51, i32 0, i32 5
  %53 = load ptr, ptr %52, align 8
  %54 = call ptr @MemoryContextSwitchTo(ptr noundef %53)
  store ptr %54, ptr %8, align 8
  %55 = load ptr, ptr %7, align 8
  %56 = getelementptr inbounds nuw %struct.FunctionCallInfoBaseData, ptr %55, i32 0, i32 6
  %57 = getelementptr inbounds [0 x %struct.NullableDatum], ptr %56, i64 0, i64 1
  %58 = getelementptr inbounds nuw %struct.NullableDatum, ptr %57, i32 0, i32 0
  %59 = load i64, ptr %58, align 8
  %60 = load ptr, ptr %5, align 8
  %61 = getelementptr inbounds nuw %struct.AggStatePerTransData, ptr %60, i32 0, i32 26
  %62 = load i8, ptr %61, align 1, !range !4, !noundef !5
  %63 = trunc i8 %62 to i1
  %64 = load ptr, ptr %5, align 8
  %65 = getelementptr inbounds nuw %struct.AggStatePerTransData, ptr %64, i32 0, i32 24
  %66 = load i16, ptr %65, align 4
  %67 = sext i16 %66 to i32
  %68 = call i64 @datumCopy(i64 noundef %59, i1 noundef zeroext %63, i32 noundef %67)
  %69 = load ptr, ptr %6, align 8
  %70 = getelementptr inbounds nuw %struct.AggStatePerGroupData, ptr %69, i32 0, i32 0
  store i64 %68, ptr %70, align 8
  %71 = load ptr, ptr %6, align 8
  %72 = getelementptr inbounds nuw %struct.AggStatePerGroupData, ptr %71, i32 0, i32 1
  store i8 0, ptr %72, align 8
  %73 = load ptr, ptr %6, align 8
  %74 = getelementptr inbounds nuw %struct.AggStatePerGroupData, ptr %73, i32 0, i32 2
  store i8 0, ptr %74, align 1
  %75 = load ptr, ptr %8, align 8
  %76 = call ptr @MemoryContextSwitchTo(ptr noundef %75)
  store i32 1, ptr %12, align 4
  br label %84

77:                                               ; preds = %43
  %78 = load ptr, ptr %6, align 8
  %79 = getelementptr inbounds nuw %struct.AggStatePerGroupData, ptr %78, i32 0, i32 1
  %80 = load i8, ptr %79, align 8, !range !4, !noundef !5
  %81 = trunc i8 %80 to i1
  br i1 %81, label %82, label %83

82:                                               ; preds = %77
  store i32 1, ptr %12, align 4
  br label %84

83:                                               ; preds = %77
  store i32 0, ptr %12, align 4
  br label %84

84:                                               ; preds = %83, %82, %48, %38
  call void @llvm.lifetime.end.p0(i64 4, ptr %11) #9
  call void @llvm.lifetime.end.p0(i64 4, ptr %10) #9
  %85 = load i32, ptr %12, align 4
  switch i32 %85, label %165 [
    i32 0, label %86
  ]

86:                                               ; preds = %84
  br label %87

87:                                               ; preds = %86, %3
  %88 = load ptr, ptr %4, align 8
  %89 = getelementptr inbounds nuw %struct.AggState, ptr %88, i32 0, i32 13
  %90 = load ptr, ptr %89, align 8
  %91 = getelementptr inbounds nuw %struct.ExprContext, ptr %90, i32 0, i32 5
  %92 = load ptr, ptr %91, align 8
  %93 = call ptr @MemoryContextSwitchTo(ptr noundef %92)
  store ptr %93, ptr %8, align 8
  %94 = load ptr, ptr %5, align 8
  %95 = load ptr, ptr %4, align 8
  %96 = getelementptr inbounds nuw %struct.AggState, ptr %95, i32 0, i32 16
  store ptr %94, ptr %96, align 8
  %97 = load ptr, ptr %6, align 8
  %98 = getelementptr inbounds nuw %struct.AggStatePerGroupData, ptr %97, i32 0, i32 0
  %99 = load i64, ptr %98, align 8
  %100 = load ptr, ptr %7, align 8
  %101 = getelementptr inbounds nuw %struct.FunctionCallInfoBaseData, ptr %100, i32 0, i32 6
  %102 = getelementptr inbounds [0 x %struct.NullableDatum], ptr %101, i64 0, i64 0
  %103 = getelementptr inbounds nuw %struct.NullableDatum, ptr %102, i32 0, i32 0
  store i64 %99, ptr %103, align 8
  %104 = load ptr, ptr %6, align 8
  %105 = getelementptr inbounds nuw %struct.AggStatePerGroupData, ptr %104, i32 0, i32 1
  %106 = load i8, ptr %105, align 8, !range !4, !noundef !5
  %107 = trunc i8 %106 to i1
  %108 = load ptr, ptr %7, align 8
  %109 = getelementptr inbounds nuw %struct.FunctionCallInfoBaseData, ptr %108, i32 0, i32 6
  %110 = getelementptr inbounds [0 x %struct.NullableDatum], ptr %109, i64 0, i64 0
  %111 = getelementptr inbounds nuw %struct.NullableDatum, ptr %110, i32 0, i32 1
  %112 = zext i1 %107 to i8
  store i8 %112, ptr %111, align 8
  %113 = load ptr, ptr %7, align 8
  %114 = getelementptr inbounds nuw %struct.FunctionCallInfoBaseData, ptr %113, i32 0, i32 4
  store i8 0, ptr %114, align 4
  %115 = load ptr, ptr %7, align 8
  %116 = getelementptr inbounds nuw %struct.FunctionCallInfoBaseData, ptr %115, i32 0, i32 0
  %117 = load ptr, ptr %116, align 8
  %118 = getelementptr inbounds nuw %struct.FmgrInfo, ptr %117, i32 0, i32 0
  %119 = load ptr, ptr %118, align 8
  %120 = load ptr, ptr %7, align 8
  %121 = call i64 %119(ptr noundef %120)
  store i64 %121, ptr %9, align 8
  %122 = load ptr, ptr %4, align 8
  %123 = getelementptr inbounds nuw %struct.AggState, ptr %122, i32 0, i32 16
  store ptr null, ptr %123, align 8
  %124 = load ptr, ptr %5, align 8
  %125 = getelementptr inbounds nuw %struct.AggStatePerTransData, ptr %124, i32 0, i32 26
  %126 = load i8, ptr %125, align 1, !range !4, !noundef !5
  %127 = trunc i8 %126 to i1
  br i1 %127, label %152, label %128

128:                                              ; preds = %87
  %129 = load i64, ptr %9, align 8
  %130 = call ptr @DatumGetPointer(i64 noundef %129)
  %131 = load ptr, ptr %6, align 8
  %132 = getelementptr inbounds nuw %struct.AggStatePerGroupData, ptr %131, i32 0, i32 0
  %133 = load i64, ptr %132, align 8
  %134 = call ptr @DatumGetPointer(i64 noundef %133)
  %135 = icmp ne ptr %130, %134
  br i1 %135, label %136, label %152

136:                                              ; preds = %128
  %137 = load ptr, ptr %4, align 8
  %138 = load ptr, ptr %5, align 8
  %139 = load i64, ptr %9, align 8
  %140 = load ptr, ptr %7, align 8
  %141 = getelementptr inbounds nuw %struct.FunctionCallInfoBaseData, ptr %140, i32 0, i32 4
  %142 = load i8, ptr %141, align 4, !range !4, !noundef !5
  %143 = trunc i8 %142 to i1
  %144 = load ptr, ptr %6, align 8
  %145 = getelementptr inbounds nuw %struct.AggStatePerGroupData, ptr %144, i32 0, i32 0
  %146 = load i64, ptr %145, align 8
  %147 = load ptr, ptr %6, align 8
  %148 = getelementptr inbounds nuw %struct.AggStatePerGroupData, ptr %147, i32 0, i32 1
  %149 = load i8, ptr %148, align 8, !range !4, !noundef !5
  %150 = trunc i8 %149 to i1
  %151 = call i64 @ExecAggCopyTransValue(ptr noundef %137, ptr noundef %138, i64 noundef %139, i1 noundef zeroext %143, i64 noundef %146, i1 noundef zeroext %150)
  store i64 %151, ptr %9, align 8
  br label %152

152:                                              ; preds = %136, %128, %87
  %153 = load i64, ptr %9, align 8
  %154 = load ptr, ptr %6, align 8
  %155 = getelementptr inbounds nuw %struct.AggStatePerGroupData, ptr %154, i32 0, i32 0
  store i64 %153, ptr %155, align 8
  %156 = load ptr, ptr %7, align 8
  %157 = getelementptr inbounds nuw %struct.FunctionCallInfoBaseData, ptr %156, i32 0, i32 4
  %158 = load i8, ptr %157, align 4, !range !4, !noundef !5
  %159 = trunc i8 %158 to i1
  %160 = load ptr, ptr %6, align 8
  %161 = getelementptr inbounds nuw %struct.AggStatePerGroupData, ptr %160, i32 0, i32 1
  %162 = zext i1 %159 to i8
  store i8 %162, ptr %161, align 8
  %163 = load ptr, ptr %8, align 8
  %164 = call ptr @MemoryContextSwitchTo(ptr noundef %163)
  store i32 0, ptr %12, align 4
  br label %165

165:                                              ; preds = %152, %84
  call void @llvm.lifetime.end.p0(i64 8, ptr %9) #9
  call void @llvm.lifetime.end.p0(i64 8, ptr %8) #9
  call void @llvm.lifetime.end.p0(i64 8, ptr %7) #9
  %166 = load i32, ptr %12, align 4
  switch i32 %166, label %168 [
    i32 0, label %167
    i32 1, label %167
  ]

167:                                              ; preds = %165, %165
  ret void

168:                                              ; preds = %165
  unreachable
}