; Function Attrs: nounwind uwtable
define internal fastcc void @advance_transition_function(ptr noundef %0, ptr noundef %1, ptr noundef captures(none) %2) unnamed_addr #2 {
  %4 = getelementptr inbounds nuw i8, ptr %1, i64 352
  %5 = load ptr, ptr %4, align 8
  %6 = getelementptr inbounds nuw i8, ptr %1, i64 54
  %7 = load i8, ptr %6, align 2, !range !6, !noundef !7
  %8 = trunc nuw i8 %7 to i1
  br i1 %8, label %9, label %43

9:                                                ; preds = %3
  %10 = getelementptr inbounds nuw i8, ptr %1, i64 16
  %11 = load i32, ptr %10, align 8
  %.not46 = icmp slt i32 %11, 1
  br i1 %.not46, label %._crit_edge, label %.lr.ph

.lr.ph:                                           ; preds = %9
  %12 = getelementptr i8, ptr %5, i64 40
  br label %15

13:                                               ; preds = %15
  %14 = add i32 %.04347, 1
  %.not = icmp sgt i32 %14, %11
  br i1 %.not, label %._crit_edge, label %15, !llvm.loop !52

15:                                               ; preds = %.lr.ph, %13
  %.04347 = phi i32 [ 1, %.lr.ph ], [ %14, %13 ]
  %16 = sext i32 %.04347 to i64
  %.idx = shl nsw i64 %16, 4
  %17 = getelementptr i8, ptr %12, i64 %.idx
  %18 = load i8, ptr %17, align 8, !range !6, !noundef !7
  %19 = trunc nuw i8 %18 to i1
  br i1 %19, label %.critedge, label %13

._crit_edge:                                      ; preds = %13, %9
  %20 = getelementptr inbounds nuw i8, ptr %2, i64 9
  %21 = load i8, ptr %20, align 1, !range !6, !noundef !7
  %22 = trunc nuw i8 %21 to i1
  br i1 %22, label %23, label %39

23:                                               ; preds = %._crit_edge
  %24 = getelementptr inbounds nuw i8, ptr %0, i64 304
  %25 = load ptr, ptr %24, align 8
  %26 = getelementptr inbounds nuw i8, ptr %25, i64 40
  %27 = load ptr, ptr %26, align 8
  %28 = load ptr, ptr @CurrentMemoryContext, align 8
  store ptr %27, ptr @CurrentMemoryContext, align 8
  %29 = getelementptr inbounds nuw i8, ptr %5, i64 48
  %30 = load i64, ptr %29, align 8
  %31 = getelementptr inbounds nuw i8, ptr %1, i64 303
  %32 = load i8, ptr %31, align 1, !range !6, !noundef !7
  %33 = trunc nuw i8 %32 to i1
  %34 = getelementptr inbounds nuw i8, ptr %1, i64 300
  %35 = load i16, ptr %34, align 4
  %36 = sext i16 %35 to i32
  %37 = tail call i64 @datumCopy(i64 noundef %30, i1 noundef zeroext %33, i32 noundef %36) #12
  store i64 %37, ptr %2, align 8
  %38 = getelementptr inbounds nuw i8, ptr %2, i64 8
  store i8 0, ptr %38, align 8
  store i8 0, ptr %20, align 1
  br label %.critedge.sink.split

39:                                               ; preds = %._crit_edge
  %40 = getelementptr inbounds nuw i8, ptr %2, i64 8
  %41 = load i8, ptr %40, align 8, !range !6, !noundef !7
  %42 = trunc nuw i8 %41 to i1
  br i1 %42, label %.critedge, label %43

43:                                               ; preds = %39, %3
  %44 = getelementptr inbounds nuw i8, ptr %0, i64 296
  %45 = load ptr, ptr %44, align 8
  %46 = getelementptr inbounds nuw i8, ptr %45, i64 40
  %47 = load ptr, ptr %46, align 8
  %48 = load ptr, ptr @CurrentMemoryContext, align 8
  store ptr %47, ptr @CurrentMemoryContext, align 8
  %49 = getelementptr inbounds nuw i8, ptr %0, i64 320
  store ptr %1, ptr %49, align 8
  %50 = load i64, ptr %2, align 8
  %51 = getelementptr inbounds nuw i8, ptr %5, i64 32
  store i64 %50, ptr %51, align 8
  %52 = getelementptr inbounds nuw i8, ptr %2, i64 8
  %53 = load i8, ptr %52, align 8, !range !6, !noundef !7
  %54 = getelementptr inbounds nuw i8, ptr %5, i64 40
  store i8 %53, ptr %54, align 8
  %55 = getelementptr inbounds nuw i8, ptr %5, i64 28
  store i8 0, ptr %55, align 4
  %56 = load ptr, ptr %5, align 8
  %57 = load ptr, ptr %56, align 8
  %58 = tail call i64 %57(ptr noundef nonnull %5) #12
  store ptr null, ptr %49, align 8
  %59 = getelementptr inbounds nuw i8, ptr %1, i64 303
  %60 = load i8, ptr %59, align 1, !range !6, !noundef !7
  %61 = trunc nuw i8 %60 to i1
  br i1 %61, label %70, label %62

62:                                               ; preds = %43
  %63 = load i64, ptr %2, align 8
  %.not45 = icmp eq i64 %58, %63
  br i1 %.not45, label %70, label %64

64:                                               ; preds = %62
  %65 = load i8, ptr %55, align 4, !range !6, !noundef !7
  %66 = trunc nuw i8 %65 to i1
  %67 = load i8, ptr %52, align 8, !range !6, !noundef !7
  %68 = trunc nuw i8 %67 to i1
  %69 = tail call i64 @ExecAggCopyTransValue(ptr noundef nonnull %0, ptr noundef nonnull %1, i64 noundef %58, i1 noundef zeroext %66, i64 noundef %63, i1 noundef zeroext %68) #12
  br label %70

70:                                               ; preds = %64, %62, %43
  %.044 = phi i64 [ %58, %43 ], [ %69, %64 ], [ %58, %62 ]
  store i64 %.044, ptr %2, align 8
  %71 = load i8, ptr %55, align 4, !range !6, !noundef !7
  store i8 %71, ptr %52, align 8
  br label %.critedge.sink.split

.critedge.sink.split:                             ; preds = %70, %23
  %.sink = phi ptr [ %28, %23 ], [ %48, %70 ]
  store ptr %.sink, ptr @CurrentMemoryContext, align 8
  br label %.critedge

.critedge:                                        ; preds = %15, %.critedge.sink.split, %39
  ret void
}